target datalayout = "e-m:e-p270:32:32-p271:32:32-p272:64:64-i64:64-i128:128-f80:128-n8:16:32:64-S128"
target triple = "x86_64-pc-linux-gnu"

%"class.std::optional" = type { %"struct.std::_Optional_base" }
%"struct.std::_Optional_base" = type { %"struct.std::_Optional_payload" }
%"struct.std::_Optional_payload" = type { %"struct.std::_Optional_payload.base", [7 x i8] }
%"struct.std::_Optional_payload.base" = type { %"struct.std::_Optional_payload_base.base" }
%"struct.std::_Optional_payload_base.base" = type <{ %"union.std::_Optional_payload_base<(anonymous namespace)::ClockGateCell>::_Storage", i8 }>
%"union.std::_Optional_payload_base<(anonymous namespace)::ClockGateCell>::_Storage" = type { %"struct.(anonymous namespace)::ClockGateCell" }
%"struct.(anonymous namespace)::ClockGateCell" = type { %"struct.Yosys::RTLIL::IdString", %"struct.Yosys::RTLIL::IdString", %"struct.Yosys::RTLIL::IdString", %"struct.Yosys::RTLIL::IdString", %"class.std::vector.4" }
%"struct.Yosys::RTLIL::IdString" = type { i32 }
%"class.std::vector.4" = type { %"struct.std::_Vector_base.5" }
%"struct.std::_Vector_base.5" = type { %"struct.std::_Vector_base<Yosys::RTLIL::IdString, std::allocator<Yosys::RTLIL::IdString>>::_Vector_impl" }
%"struct.std::_Vector_base<Yosys::RTLIL::IdString, std::allocator<Yosys::RTLIL::IdString>>::_Vector_impl" = type { %"struct.std::_Vector_base<Yosys::RTLIL::IdString, std::allocator<Yosys::RTLIL::IdString>>::_Vector_impl_data" }
%"struct.std::_Vector_base<Yosys::RTLIL::IdString, std::allocator<Yosys::RTLIL::IdString>>::_Vector_impl_data" = type { ptr, ptr, ptr }
%"struct.std::pair" = type { %"class.std::optional", %"class.std::optional" }
%"struct.std::_Optional_payload_base" = type <{ %"union.std::_Optional_payload_base<(anonymous namespace)::ClockGateCell>::_Storage", i8, [7 x i8] }>

; Function Attrs: mustprogress nounwind uwtable
define internal void @_ZNSt22_Optional_payload_baseIN12_GLOBAL__N_113ClockGateCellEE8_StorageIS1_Lb0EED2Ev(ptr noundef nonnull align 8 dereferenceable(40) %0) unnamed_addr #6 align 2 {
  %2 = alloca ptr, align 8
  store ptr %0, ptr %2, align 8, !tbaa !230
  ret void
}

; Function Attrs: mustprogress nounwind uwtable
define internal void @_ZNSt22_Optional_payload_baseIN12_GLOBAL__N_113ClockGateCellEE10_M_destroyEv(ptr noundef nonnull align 8 dereferenceable(41) %0) #6 align 2 {
  %2 = alloca ptr, align 8
  store ptr %0, ptr %2, align 8, !tbaa !226
  %3 = load ptr, ptr %2, align 8
  %4 = getelementptr inbounds nuw %"struct.std::_Optional_payload_base", ptr %3, i32 0, i32 1
  store i8 0, ptr %4, align 8, !tbaa !228
  %5 = getelementptr inbounds nuw %"struct.std::_Optional_payload_base", ptr %3, i32 0, i32 0
  call void @_ZN12_GLOBAL__N_113ClockGateCellD2Ev(ptr noundef nonnull align 8 dereferenceable(40) %5) #3
  ret void
}

; Function Attrs: mustprogress nounwind uwtable
define internal void @_ZNSt22_Optional_payload_baseIN12_GLOBAL__N_113ClockGateCellEED2Ev(ptr noundef nonnull align 8 dereferenceable(41) %0) unnamed_addr #6 align 2 {
  %2 = alloca ptr, align 8
  store ptr %0, ptr %2, align 8, !tbaa !226
  %3 = load ptr, ptr %2, align 8
  %4 = getelementptr inbounds nuw %"struct.std::_Optional_payload_base", ptr %3, i32 0, i32 0
  call void @_ZNSt22_Optional_payload_baseIN12_GLOBAL__N_113ClockGateCellEE8_StorageIS1_Lb0EED2Ev(ptr noundef nonnull align 8 dereferenceable(40) %4) #3
  ret void
}

; Function Attrs: mustprogress nounwind uwtable
define internal void @_ZNSt22_Optional_payload_baseIN12_GLOBAL__N_113ClockGateCellEE8_M_resetEv(ptr noundef nonnull align 8 dereferenceable(41) %0) #6 align 2 {
  %2 = alloca ptr, align 8
  store ptr %0, ptr %2, align 8, !tbaa !226
  %3 = load ptr, ptr %2, align 8
  %4 = getelementptr inbounds nuw %"struct.std::_Optional_payload_base", ptr %3, i32 0, i32 1
  %5 = load i8, ptr %4, align 8, !tbaa !228, !range !70, !noundef !71
  %6 = trunc i8 %5 to i1
  br i1 %6, label %7, label %8

7:                                                ; preds = %1
  call void @_ZNSt22_Optional_payload_baseIN12_GLOBAL__N_113ClockGateCellEE10_M_destroyEv(ptr noundef nonnull align 8 dereferenceable(41) %3) #3
  br label %8

8:                                                ; preds = %7, %1
  ret void
}

; Function Attrs: mustprogress nounwind uwtable
define internal void @_ZNSt17_Optional_payloadIN12_GLOBAL__N_113ClockGateCellELb0ELb0ELb0EED2Ev(ptr noundef nonnull align 8 dereferenceable(41) %0) unnamed_addr #6 align 2 {
  %2 = alloca ptr, align 8
  store ptr %0, ptr %2, align 8, !tbaa !222
  %3 = load ptr, ptr %2, align 8
  call void @_ZNSt22_Optional_payload_baseIN12_GLOBAL__N_113ClockGateCellEE8_M_resetEv(ptr noundef nonnull align 8 dereferenceable(41) %3) #3
  call void @_ZNSt22_Optional_payload_baseIN12_GLOBAL__N_113ClockGateCellEED2Ev(ptr noundef nonnull align 8 dereferenceable(41) %3) #3
  ret void
}

; Function Attrs: inlinehint mustprogress nounwind uwtable
define internal void @_ZNSt14_Optional_baseIN12_GLOBAL__N_113ClockGateCellELb0ELb0EED2Ev(ptr noundef nonnull align 8 dereferenceable(48) %0) unnamed_addr #7 align 2 {
  %2 = alloca ptr, align 8
  store ptr %0, ptr %2, align 8, !tbaa !210
  %3 = load ptr, ptr %2, align 8
  %4 = getelementptr inbounds nuw %"struct.std::_Optional_base", ptr %3, i32 0, i32 0
  call void @_ZNSt17_Optional_payloadIN12_GLOBAL__N_113ClockGateCellELb0ELb0ELb0EED2Ev(ptr noundef nonnull align 8 dereferenceable(41) %4) #3
  ret void
}

; Function Attrs: inlinehint mustprogress nounwind uwtable
define internal void @_ZNSt4pairISt8optionalIN12_GLOBAL__N_113ClockGateCellEES3_ED2Ev(ptr noundef nonnull align 8 dereferenceable(96) %0) unnamed_addr #7 align 2 {
  %2 = alloca ptr, align 8
  store ptr %0, ptr %2, align 8, !tbaa !165
  %3 = load ptr, ptr %2, align 8
  %4 = getelementptr inbounds nuw %"struct.std::pair", ptr %3, i32 0, i32 1
  call void @_ZNSt14_Optional_baseIN12_GLOBAL__N_113ClockGateCellELb0ELb0EED2Ev(ptr noundef nonnull align 8 dereferenceable(48) %4) #3
  %5 = getelementptr inbounds nuw %"struct.std::pair", ptr %3, i32 0, i32 0
  call void @_ZNSt14_Optional_baseIN12_GLOBAL__N_113ClockGateCellELb0ELb0EED2Ev(ptr noundef nonnull align 8 dereferenceable(48) %5) #3
  ret void
}