; Function Attrs: inlinehint mustprogress nounwind uwtable
define internal fastcc void @_ZNSt4pairISt8optionalIN12_GLOBAL__N_113ClockGateCellEES3_ED2Ev(ptr noundef nonnull align 8 captures(none) dereferenceable(96) %0) unnamed_addr #4 align 2 {
  %2 = getelementptr inbounds nuw i8, ptr %0, i64 88
  %3 = load i8, ptr %2, align 8, !tbaa !6, !range !25, !noundef !26
  %4 = trunc nuw i8 %3 to i1
  br i1 %4, label %5, label %_ZNSt14_Optional_baseIN12_GLOBAL__N_113ClockGateCellELb0ELb0EED2Ev.exit

5:                                                ; preds = %1
  %6 = getelementptr inbounds nuw i8, ptr %0, i64 48
  store i8 0, ptr %2, align 8, !tbaa !6
  tail call fastcc void @_ZN12_GLOBAL__N_113ClockGateCellD2Ev(ptr noundef nonnull align 8 dereferenceable(48) %6) #25
  br label %_ZNSt14_Optional_baseIN12_GLOBAL__N_113ClockGateCellELb0ELb0EED2Ev.exit

_ZNSt14_Optional_baseIN12_GLOBAL__N_113ClockGateCellELb0ELb0EED2Ev.exit: ; preds = %1, %5
  %7 = getelementptr inbounds nuw i8, ptr %0, i64 40
  %8 = load i8, ptr %7, align 8, !tbaa !6, !range !25, !noundef !26
  %9 = trunc nuw i8 %8 to i1
  br i1 %9, label %10, label %_ZNSt14_Optional_baseIN12_GLOBAL__N_113ClockGateCellELb0ELb0EED2Ev.exit1

10:                                               ; preds = %_ZNSt14_Optional_baseIN12_GLOBAL__N_113ClockGateCellELb0ELb0EED2Ev.exit
  store i8 0, ptr %7, align 8, !tbaa !6
  tail call fastcc void @_ZN12_GLOBAL__N_113ClockGateCellD2Ev(ptr noundef nonnull align 8 dereferenceable(48) %0) #25
  br label %_ZNSt14_Optional_baseIN12_GLOBAL__N_113ClockGateCellELb0ELb0EED2Ev.exit1

_ZNSt14_Optional_baseIN12_GLOBAL__N_113ClockGateCellELb0ELb0EED2Ev.exit1: ; preds = %_ZNSt14_Optional_baseIN12_GLOBAL__N_113ClockGateCellELb0ELb0EED2Ev.exit, %10
  ret void
}